target datalayout = "e-m:e-p270:32:32-p271:32:32-p272:64:64-i64:64-i128:128-f80:128-n8:16:32:64-S128"
target triple = "x86_64-pc-linux-gnu"

@.str = private unnamed_addr constant [9 x i8] c"msvc_sdk\00", align 1

; Function Attrs: nounwind uwtable
define dso_local ptr @windows_get_sdk() #0 {
  ret ptr null
}

; Function Attrs: nounwind uwtable
define dso_local ptr @windows_cross_compile_library() #0 {
  %1 = call ptr @find_rel_exe_dir(ptr noundef @.str)
  ret ptr %1
}

declare ptr @find_rel_exe_dir(ptr noundef) #1


!llvm.module.flags = !{!0, !1, !2, !3, !4, !5, !6}

!0 = !{i32 7, !"Dwarf Version", i32 3}
!1 = !{i32 2, !"Debug Info Version", i32 3}
!2 = !{i32 1, !"wchar_size", i32 4}
!3 = !{i32 8, !"PIC Level", i32 2}
!4 = !{i32 7, !"PIE Level", i32 2}
!5 = !{i32 7, !"uwtable", i32 2}
!6 = !{i32 7, !"frame-pointer", i32 2}
